; Function Attrs: nounwind uwtable
define internal noundef i32 @f_gc(ptr noundef %0) #0 {
  %2 = alloca ptr, align 8
  %3 = tail call ptr @luaL_checkudata(ptr noundef %0, i32 noundef 1, ptr noundef nonnull @.str.16) #9
  %4 = getelementptr inbounds nuw i8, ptr %3, i64 8
  %5 = load ptr, ptr %4, align 8, !tbaa !9
  %6 = icmp eq ptr %5, null
  br i1 %6, label %14, label %7

7:                                                ; preds = %1
  %8 = load ptr, ptr %3, align 8, !tbaa !11
  %.not = icmp eq ptr %8, null
  br i1 %.not, label %14, label %9

9:                                                ; preds = %7
  %10 = tail call ptr @luaL_checkudata(ptr noundef %0, i32 noundef 1, ptr noundef nonnull @.str.16) #9
  call void @llvm.lifetime.start.p0(i64 8, ptr nonnull %2)
  %11 = getelementptr inbounds nuw i8, ptr %10, i64 8
  %12 = load ptr, ptr %11, align 8, !tbaa !9
  store volatile ptr %12, ptr %2, align 8, !tbaa !13
  store ptr null, ptr %11, align 8, !tbaa !9
  %.0..0..0..0..0..0..i = load volatile ptr, ptr %2, align 8, !tbaa !13
  %13 = tail call i32 %.0..0..0..0..0..0..i(ptr noundef %0) #9
  call void @llvm.lifetime.end.p0(i64 8, ptr nonnull %2)
  br label %14

14:                                               ; preds = %9, %7, %1
  ret i32 0
}